; Function Attrs: mustprogress nofree norecurse nosync nounwind willreturn memory(none) uwtable
define hidden noundef i64 @_ZN4cvc58internal6theory15TheoryIdSetUtil7setSizeEj(i32 noundef %0) local_unnamed_addr #1 align 2 {
  %.not.i6 = icmp eq i32 %0, 0
  br i1 %.not.i6, label %_ZN4cvc58internal6theory15TheoryIdSetUtil6setPopERj.exit.thread, label %_ZN4cvc58internal6theory15TheoryIdSetUtil6setPopERj.exit

_ZN4cvc58internal6theory15TheoryIdSetUtil6setPopERj.exit: ; preds = %1, %2
  %.08 = phi i64 [ %6, %2 ], [ 0, %1 ]
  %.027 = phi i32 [ %5, %2 ], [ %0, %1 ]
  %cttz.i = tail call range(i32 0, 33) i32 @llvm.cttz.i32(i32 %.027, i1 true)
  %.not = icmp eq i32 %cttz.i, 14
  br i1 %.not, label %_ZN4cvc58internal6theory15TheoryIdSetUtil6setPopERj.exit.thread, label %2

2:                                                ; preds = %_ZN4cvc58internal6theory15TheoryIdSetUtil6setPopERj.exit
  %3 = shl nuw i32 1, %cttz.i
  %4 = xor i32 %3, -1
  %5 = and i32 %.027, %4
  %6 = add i64 %.08, 1
  %.not.i = icmp eq i32 %5, 0
  br i1 %.not.i, label %_ZN4cvc58internal6theory15TheoryIdSetUtil6setPopERj.exit.thread, label %_ZN4cvc58internal6theory15TheoryIdSetUtil6setPopERj.exit, !llvm.loop !19

_ZN4cvc58internal6theory15TheoryIdSetUtil6setPopERj.exit.thread: ; preds = %_ZN4cvc58internal6theory15TheoryIdSetUtil6setPopERj.exit, %2, %1
  %.0.lcssa = phi i64 [ 0, %1 ], [ %6, %2 ], [ %.08, %_ZN4cvc58internal6theory15TheoryIdSetUtil6setPopERj.exit ]
  ret i64 %.0.lcssa
}